; Function Attrs: mustprogress uwtable
define noundef i32 @_ZNK7Imf_3_419DeepTiledOutputFile11levelHeightEi(ptr noundef nonnull readonly align 8 captures(none) dereferenceable(16) %0, i32 noundef %1) local_unnamed_addr #5 align 2 personality ptr @__gxx_personality_v0 {
  %3 = alloca %"class.std::__cxx11::basic_stringstream", align 8
  %4 = getelementptr inbounds nuw i8, ptr %0, i64 8
  %5 = load ptr, ptr %4, align 8, !tbaa !126
  %6 = getelementptr inbounds nuw i8, ptr %5, i64 204
  %7 = load i32, ptr %6, align 4, !tbaa !152
  %8 = getelementptr inbounds nuw i8, ptr %5, i64 208
  %9 = load i32, ptr %8, align 8, !tbaa !154
  %10 = getelementptr inbounds nuw i8, ptr %5, i64 76
  %11 = load i32, ptr %10, align 4, !tbaa !249
  %12 = invoke noundef i32 @_ZN7Imf_3_49levelSizeEiiiNS_17LevelRoundingModeE(i32 noundef %7, i32 noundef %9, i32 noundef %1, i32 noundef %11)
          to label %13 unwind label %14

13:                                               ; preds = %2
  ret i32 %12

14:                                               ; preds = %2
  %15 = landingpad { ptr, i32 }
          catch ptr @_ZTIN7Iex_3_47BaseExcE
  %16 = extractvalue { ptr, i32 } %15, 1
  %17 = tail call i32 @llvm.eh.typeid.for.p0(ptr nonnull @_ZTIN7Iex_3_47BaseExcE) #25
  %18 = icmp eq i32 %16, %17
  br i1 %18, label %19, label %50

19:                                               ; preds = %14
  %20 = extractvalue { ptr, i32 } %15, 0
  %21 = tail call ptr @__cxa_begin_catch(ptr %20) #25
  call void @llvm.lifetime.start.p0(i64 392, ptr nonnull %3) #25
  invoke void @_ZNSt7__cxx1118basic_stringstreamIcSt11char_traitsIcESaIcEEC1Ev(ptr noundef nonnull align 8 dereferenceable(128) %3)
          to label %22 unwind label %42

22:                                               ; preds = %19
  %23 = getelementptr inbounds nuw i8, ptr %3, i64 16
  %24 = invoke noundef nonnull align 8 dereferenceable(8) ptr @_ZSt16__ostream_insertIcSt11char_traitsIcEERSt13basic_ostreamIT_T0_ES6_PKS3_l(ptr noundef nonnull align 8 dereferenceable(8) %23, ptr noundef nonnull @.str.37, i64 noundef 43)
          to label %_ZStlsISt11char_traitsIcEERSt13basic_ostreamIcT_ES5_PKc.exit unwind label %44

_ZStlsISt11char_traitsIcEERSt13basic_ostreamIcT_ES5_PKc.exit: ; preds = %22
  %25 = load ptr, ptr %4, align 8, !tbaa !126
  %26 = getelementptr inbounds nuw i8, ptr %25, i64 448
  %27 = load ptr, ptr %26, align 8, !tbaa !72
  %28 = getelementptr inbounds nuw i8, ptr %27, i64 40
  %29 = load ptr, ptr %28, align 8, !tbaa !130
  %30 = invoke noundef ptr @_ZNK7Imf_3_47OStream8fileNameEv(ptr noundef nonnull align 8 dereferenceable(40) %29)
          to label %_ZNK7Imf_3_419DeepTiledOutputFile8fileNameEv.exit unwind label %44

_ZNK7Imf_3_419DeepTiledOutputFile8fileNameEv.exit: ; preds = %_ZStlsISt11char_traitsIcEERSt13basic_ostreamIcT_ES5_PKc.exit
  %31 = invoke noundef nonnull align 8 dereferenceable(8) ptr @_ZStlsISt11char_traitsIcEERSt13basic_ostreamIcT_ES5_PKc(ptr noundef nonnull align 8 dereferenceable(8) %23, ptr noundef %30)
          to label %32 unwind label %44

32:                                               ; preds = %_ZNK7Imf_3_419DeepTiledOutputFile8fileNameEv.exit
  %33 = invoke noundef nonnull align 8 dereferenceable(8) ptr @_ZSt16__ostream_insertIcSt11char_traitsIcEERSt13basic_ostreamIT_T0_ES6_PKS3_l(ptr noundef nonnull align 8 dereferenceable(8) %31, ptr noundef nonnull @.str.9, i64 noundef 3)
          to label %_ZStlsISt11char_traitsIcEERSt13basic_ostreamIcT_ES5_PKc.exit14 unwind label %44

_ZStlsISt11char_traitsIcEERSt13basic_ostreamIcT_ES5_PKc.exit14: ; preds = %32
  %34 = load ptr, ptr %21, align 8, !tbaa !112
  %35 = getelementptr inbounds nuw i8, ptr %34, i64 16
  %36 = load ptr, ptr %35, align 8
  %37 = call noundef ptr %36(ptr noundef nonnull align 8 dereferenceable(72) %21) #25
  %38 = invoke noundef nonnull align 8 dereferenceable(8) ptr @_ZStlsISt11char_traitsIcEERSt13basic_ostreamIcT_ES5_PKc(ptr noundef nonnull align 8 dereferenceable(8) %31, ptr noundef %37)
          to label %39 unwind label %44

39:                                               ; preds = %_ZStlsISt11char_traitsIcEERSt13basic_ostreamIcT_ES5_PKc.exit14
  %40 = invoke noundef nonnull align 8 dereferenceable(72) ptr @_ZN7Iex_3_47BaseExc6assignERNSt7__cxx1118basic_stringstreamIcSt11char_traitsIcESaIcEEE(ptr noundef nonnull align 8 dereferenceable(72) %21, ptr noundef nonnull align 8 dereferenceable(128) %3)
          to label %41 unwind label %44

41:                                               ; preds = %39
  call void @_ZNSt7__cxx1118basic_stringstreamIcSt11char_traitsIcESaIcEED1Ev(ptr noundef nonnull align 8 dereferenceable(128) %3) #25
  call void @llvm.lifetime.end.p0(i64 392, ptr nonnull %3) #25
  invoke void @__cxa_rethrow() #30
          to label %54 unwind label %47

42:                                               ; preds = %19
  %43 = landingpad { ptr, i32 }
          cleanup
  br label %46

44:                                               ; preds = %32, %_ZStlsISt11char_traitsIcEERSt13basic_ostreamIcT_ES5_PKc.exit, %22, %39, %_ZStlsISt11char_traitsIcEERSt13basic_ostreamIcT_ES5_PKc.exit14, %_ZNK7Imf_3_419DeepTiledOutputFile8fileNameEv.exit
  %45 = landingpad { ptr, i32 }
          cleanup
  call void @_ZNSt7__cxx1118basic_stringstreamIcSt11char_traitsIcESaIcEED1Ev(ptr noundef nonnull align 8 dereferenceable(128) %3) #25
  br label %46

46:                                               ; preds = %44, %42
  %.pn = phi { ptr, i32 } [ %45, %44 ], [ %43, %42 ]
  call void @llvm.lifetime.end.p0(i64 392, ptr nonnull %3) #25
  br label %49

47:                                               ; preds = %41
  %48 = landingpad { ptr, i32 }
          cleanup
  br label %49

49:                                               ; preds = %47, %46
  %.pn12 = phi { ptr, i32 } [ %48, %47 ], [ %.pn, %46 ]
  invoke void @__cxa_end_catch()
          to label %50 unwind label %51

50:                                               ; preds = %49, %14
  %.merged = phi { ptr, i32 } [ %15, %14 ], [ %.pn12, %49 ]
  resume { ptr, i32 } %.merged

51:                                               ; preds = %49
  %52 = landingpad { ptr, i32 }
          catch ptr null
  %53 = extractvalue { ptr, i32 } %52, 0
  call void @__clang_call_terminate(ptr %53) #28
  unreachable

54:                                               ; preds = %41
  unreachable
}